; Function Attrs: null_pointer_is_valid sspstrong uwtable
define internal fastcc noundef i32 @s7comm_decode_szl_id_0132_idx_000c(ptr noundef %0, ptr noundef %1, i32 noundef %2) unnamed_addr #0 {
  %4 = load i32, ptr @hf_s7comm_szl_0132_000c_index, align 4
  %5 = tail call ptr @proto_tree_add_item(ptr noundef %1, i32 noundef %4, ptr noundef %0, i32 noundef %2, i32 noundef 2, i32 noundef 0)
  %6 = add i32 %2, 2
  %7 = load i32, ptr @hf_s7comm_szl_0132_000c_bszl_0, align 4
  %8 = tail call ptr @proto_tree_add_item(ptr noundef %1, i32 noundef %7, ptr noundef %0, i32 noundef %6, i32 noundef 1, i32 noundef 0)
  %9 = add i32 %2, 3
  %10 = load i32, ptr @hf_s7comm_szl_0132_000c_bszl_1, align 4
  %11 = tail call ptr @proto_tree_add_item(ptr noundef %1, i32 noundef %10, ptr noundef %0, i32 noundef %9, i32 noundef 1, i32 noundef 0)
  %12 = add i32 %2, 4
  %13 = load i32, ptr @hf_s7comm_szl_0132_000c_bszu_0, align 4
  %14 = tail call ptr @proto_tree_add_item(ptr noundef %1, i32 noundef %13, ptr noundef %0, i32 noundef %12, i32 noundef 1, i32 noundef 0)
  %15 = add i32 %2, 5
  %16 = load i32, ptr @hf_s7comm_szl_0132_000c_bszu_1, align 4
  %17 = tail call ptr @proto_tree_add_item(ptr noundef %1, i32 noundef %16, ptr noundef %0, i32 noundef %15, i32 noundef 1, i32 noundef 0)
  %18 = add i32 %2, 6
  %19 = load i32, ptr @hf_s7comm_szl_0132_000c_clock8, align 4
  %20 = tail call ptr @proto_tree_add_item(ptr noundef %1, i32 noundef %19, ptr noundef %0, i32 noundef %18, i32 noundef 4, i32 noundef 0)
  %21 = add i32 %2, 10
  %22 = load i32, ptr @hf_s7comm_szl_0132_000c_clock9, align 4
  %23 = tail call ptr @proto_tree_add_item(ptr noundef %1, i32 noundef %22, ptr noundef %0, i32 noundef %21, i32 noundef 4, i32 noundef 0)
  %24 = add i32 %2, 14
  %25 = load i32, ptr @hf_s7comm_szl_0132_000c_clock10, align 4
  %26 = tail call ptr @proto_tree_add_item(ptr noundef %1, i32 noundef %25, ptr noundef %0, i32 noundef %24, i32 noundef 4, i32 noundef 0)
  %27 = add i32 %2, 18
  %28 = load i32, ptr @hf_s7comm_szl_0132_000c_clock11, align 4
  %29 = tail call ptr @proto_tree_add_item(ptr noundef %1, i32 noundef %28, ptr noundef %0, i32 noundef %27, i32 noundef 4, i32 noundef 0)
  %30 = add i32 %2, 22
  %31 = load i32, ptr @hf_s7comm_szl_0132_000c_clock12, align 4
  %32 = tail call ptr @proto_tree_add_item(ptr noundef %1, i32 noundef %31, ptr noundef %0, i32 noundef %30, i32 noundef 4, i32 noundef 0)
  %33 = add i32 %2, 26
  %34 = load i32, ptr @hf_s7comm_szl_0132_000c_clock13, align 4
  %35 = tail call ptr @proto_tree_add_item(ptr noundef %1, i32 noundef %34, ptr noundef %0, i32 noundef %33, i32 noundef 4, i32 noundef 0)
  %36 = add i32 %2, 30
  %37 = load i32, ptr @hf_s7comm_szl_0132_000c_clock14, align 4
  %38 = tail call ptr @proto_tree_add_item(ptr noundef %1, i32 noundef %37, ptr noundef %0, i32 noundef %36, i32 noundef 4, i32 noundef 0)
  %39 = add i32 %2, 34
  %40 = load i32, ptr @hf_s7comm_szl_0132_000c_clock15, align 4
  %41 = tail call ptr @proto_tree_add_item(ptr noundef %1, i32 noundef %40, ptr noundef %0, i32 noundef %39, i32 noundef 4, i32 noundef 0)
  %42 = add i32 %2, 38
  %43 = load i32, ptr @hf_s7comm_szl_0132_000c_res, align 4
  %44 = tail call ptr @proto_tree_add_item(ptr noundef %1, i32 noundef %43, ptr noundef %0, i32 noundef %42, i32 noundef 2, i32 noundef 0)
  %45 = add i32 %2, 40
  ret i32 %45
}